target datalayout = "e-m:e-p270:32:32-p271:32:32-p272:64:64-i64:64-i128:128-f80:128-n8:16:32:64-S128"
target triple = "x86_64-unknown-linux-gnu"

%"class.icu_75::CharStringByteSink" = type { %"class.icu_75::ByteSink", ptr }
%"class.icu_75::ByteSink" = type { ptr }

; Function Attrs: mustprogress nounwind uwtable
define internal noundef signext i8 @_ZL9U_SUCCESS10UErrorCode(i32 noundef %code) #0 {
entry:
  %code.addr = alloca i32, align 4
  store i32 %code, ptr %code.addr, align 4
  %0 = load i32, ptr %code.addr, align 4
  %cmp = icmp sle i32 %0, 0
  %conv = zext i1 %cmp to i8
  ret i8 %conv
}

; Function Attrs: mustprogress uwtable
define noundef ptr @_ZN6icu_7518CharStringByteSink15GetAppendBufferEiiPciPi(ptr noundef nonnull align 8 dereferenceable(16) %this, i32 noundef %min_capacity, i32 noundef %desired_capacity_hint, ptr noundef %scratch, i32 noundef %scratch_capacity, ptr noundef %result_capacity) unnamed_addr #1 align 2 {
entry:
  %retval = alloca ptr, align 8
  %this.addr = alloca ptr, align 8
  %min_capacity.addr = alloca i32, align 4
  %desired_capacity_hint.addr = alloca i32, align 4
  %scratch.addr = alloca ptr, align 8
  %scratch_capacity.addr = alloca i32, align 4
  %result_capacity.addr = alloca ptr, align 8
  %status = alloca i32, align 4
  %result = alloca ptr, align 8
  store ptr %this, ptr %this.addr, align 8
  store i32 %min_capacity, ptr %min_capacity.addr, align 4
  store i32 %desired_capacity_hint, ptr %desired_capacity_hint.addr, align 4
  store ptr %scratch, ptr %scratch.addr, align 8
  store i32 %scratch_capacity, ptr %scratch_capacity.addr, align 4
  store ptr %result_capacity, ptr %result_capacity.addr, align 8
  %this1 = load ptr, ptr %this.addr, align 8
  %0 = load i32, ptr %min_capacity.addr, align 4
  %cmp = icmp slt i32 %0, 1
  br i1 %cmp, label %if.then, label %lor.lhs.false

lor.lhs.false:                                    ; preds = %entry
  %1 = load i32, ptr %scratch_capacity.addr, align 4
  %2 = load i32, ptr %min_capacity.addr, align 4
  %cmp2 = icmp slt i32 %1, %2
  br i1 %cmp2, label %if.then, label %if.end

if.then:                                          ; preds = %lor.lhs.false, %entry
  %3 = load ptr, ptr %result_capacity.addr, align 8
  store i32 0, ptr %3, align 4
  store ptr null, ptr %retval, align 8
  br label %return

if.end:                                           ; preds = %lor.lhs.false
  store i32 0, ptr %status, align 4
  %dest_ = getelementptr inbounds %"class.icu_75::CharStringByteSink", ptr %this1, i32 0, i32 1
  %4 = load ptr, ptr %dest_, align 8
  %5 = load i32, ptr %min_capacity.addr, align 4
  %6 = load i32, ptr %desired_capacity_hint.addr, align 4
  %7 = load ptr, ptr %result_capacity.addr, align 8
  %call = call noundef ptr @_ZN6icu_7510CharString15getAppendBufferEiiRiR10UErrorCode(ptr noundef nonnull align 8 dereferenceable(60) %4, i32 noundef %5, i32 noundef %6, ptr noundef nonnull align 4 dereferenceable(4) %7, ptr noundef nonnull align 4 dereferenceable(4) %status)
  store ptr %call, ptr %result, align 8
  %8 = load i32, ptr %status, align 4
  %call3 = call noundef signext i8 @_ZL9U_SUCCESS10UErrorCode(i32 noundef %8)
  %tobool = icmp ne i8 %call3, 0
  br i1 %tobool, label %if.then4, label %if.end5

if.then4:                                         ; preds = %if.end
  %9 = load ptr, ptr %result, align 8
  store ptr %9, ptr %retval, align 8
  br label %return

if.end5:                                          ; preds = %if.end
  %10 = load i32, ptr %scratch_capacity.addr, align 4
  %11 = load ptr, ptr %result_capacity.addr, align 8
  store i32 %10, ptr %11, align 4
  %12 = load ptr, ptr %scratch.addr, align 8
  store ptr %12, ptr %retval, align 8
  br label %return

return:                                           ; preds = %if.end5, %if.then4, %if.then
  %13 = load ptr, ptr %retval, align 8
  ret ptr %13
}