; Function Attrs: mustprogress uwtable
define noundef ptr @_ZN6icu_7518CharStringByteSink15GetAppendBufferEiiPciPi(ptr nocapture noundef nonnull readonly align 8 dereferenceable(16) %this, i32 noundef %min_capacity, i32 noundef %desired_capacity_hint, ptr noundef readnone %scratch, i32 noundef %scratch_capacity, ptr noundef %result_capacity) unnamed_addr #1 align 2 {
entry:
  %status = alloca i32, align 4
  %cmp = icmp slt i32 %min_capacity, 1
  %cmp2 = icmp slt i32 %scratch_capacity, %min_capacity
  %or.cond = or i1 %cmp, %cmp2
  br i1 %or.cond, label %return.sink.split, label %if.end

if.end:                                           ; preds = %entry
  store i32 0, ptr %status, align 4
  %dest_ = getelementptr inbounds i8, ptr %this, i64 8
  %0 = load ptr, ptr %dest_, align 8
  %call = call noundef ptr @_ZN6icu_7510CharString15getAppendBufferEiiRiR10UErrorCode(ptr noundef nonnull align 8 dereferenceable(60) %0, i32 noundef %min_capacity, i32 noundef %desired_capacity_hint, ptr noundef nonnull align 4 dereferenceable(4) %result_capacity, ptr noundef nonnull align 4 dereferenceable(4) %status)
  %1 = load i32, ptr %status, align 4
  %cmp.i = icmp sgt i32 %1, 0
  br i1 %cmp.i, label %return.sink.split, label %return

return.sink.split:                                ; preds = %if.end, %entry
  %scratch_capacity.sink = phi i32 [ 0, %entry ], [ %scratch_capacity, %if.end ]
  %retval.0.ph = phi ptr [ null, %entry ], [ %scratch, %if.end ]
  store i32 %scratch_capacity.sink, ptr %result_capacity, align 4
  br label %return

return:                                           ; preds = %return.sink.split, %if.end
  %retval.0 = phi ptr [ %call, %if.end ], [ %retval.0.ph, %return.sink.split ]
  ret ptr %retval.0
}